ARM GAS  C:\Users\dasta\AppData\Local\Temp\cczVSuOv.s 			page 1


   1              		.syntax unified
   2              		.cpu cortex-m4
   3              		.eabi_attribute 27, 1
   4              		.fpu fpv4-sp-d16
   5              		.eabi_attribute 20, 1
   6              		.eabi_attribute 21, 1
   7              		.eabi_attribute 23, 3
   8              		.eabi_attribute 24, 1
   9              		.eabi_attribute 25, 1
  10              		.eabi_attribute 26, 1
  11              		.eabi_attribute 30, 1
  12              		.eabi_attribute 34, 1
  13              		.eabi_attribute 18, 4
  14              		.thumb
  15              		.syntax unified
  16              		.file	"Calculations.c"
  17              		.text
  18              	.Ltext0:
  19              		.cfi_sections	.debug_frame
  20              		.global	__aeabi_dmul
  21              		.global	__aeabi_i2d
  22              		.global	__aeabi_d2iz
  23              		.section	.text.findAmp,"ax",%progbits
  24              		.align	2
  25              		.global	findAmp
  26              		.thumb
  27              		.thumb_func
  28              		.type	findAmp, %function
  29              	findAmp:
  30              	.LFB688:
  31              		.file 1 "Calculations.c"
   1:Calculations.c **** /* ========================================
   2:Calculations.c ****  *
   3:Calculations.c ****  * Copyright YOUR COMPANY, THE YEAR
   4:Calculations.c ****  * All Rights Reserved
   5:Calculations.c ****  * UNPUBLISHED, LICENSED SOFTWARE.
   6:Calculations.c ****  *
   7:Calculations.c ****  * CONFIDENTIAL AND PROPRIETARY INFORMATION
   8:Calculations.c ****  * WHICH IS THE PROPERTY OF your company.
   9:Calculations.c ****  *
  10:Calculations.c ****  * ========================================
  11:Calculations.c **** */
  12:Calculations.c **** 
  13:Calculations.c **** #include <TinyScope.h>
  14:Calculations.c **** #include "project.h"
  15:Calculations.c **** #include "string.h"
  16:Calculations.c **** #include "math.h"
  17:Calculations.c **** #include "stdio.h"
  18:Calculations.c **** #include "stdlib.h"
  19:Calculations.c **** 
  20:Calculations.c **** /****************************************************
  21:Calculations.c ****  *
  22:Calculations.c ****  * CALCULATION FUNCTIONS
  23:Calculations.c ****  *
  24:Calculations.c **** ****************************************************/
  25:Calculations.c **** 
  26:Calculations.c **** // converts the data into something that can be displayed on screen
ARM GAS  C:\Users\dasta\AppData\Local\Temp\cczVSuOv.s 			page 2


  27:Calculations.c **** int findAmp(double psy, int data)
  28:Calculations.c **** {
  32              		.loc 1 28 0
  33              		.cfi_startproc
  34              		@ args = 0, pretend = 0, frame = 0
  35              		@ frame_needed = 0, uses_anonymous_args = 0
  36              	.LVL0:
  37 0000 70B5     		push	{r4, r5, r6, lr}
  38              		.cfi_def_cfa_offset 16
  39              		.cfi_offset 4, -16
  40              		.cfi_offset 5, -12
  41              		.cfi_offset 6, -8
  42              		.cfi_offset 14, -4
  43 0002 1646     		mov	r6, r2
  29:Calculations.c ****     double d = 1.0 * (psy) * 3300 * data / 4096;
  44              		.loc 1 29 0
  45 0004 0BA3     		adr	r3, .L3+4
  46 0006 D3E90023 		ldrd	r2, [r3]
  47              	.LVL1:
  48 000a FFF7FEFF 		bl	__aeabi_dmul
  49              	.LVL2:
  50 000e 0446     		mov	r4, r0
  51 0010 0D46     		mov	r5, r1
  52 0012 3046     		mov	r0, r6
  53 0014 FFF7FEFF 		bl	__aeabi_i2d
  54              	.LVL3:
  55 0018 2246     		mov	r2, r4
  56 001a 2B46     		mov	r3, r5
  57 001c FFF7FEFF 		bl	__aeabi_dmul
  58              	.LVL4:
  59 0020 0022     		movs	r2, #0
  60 0022 034B     		ldr	r3, .L3
  61 0024 FFF7FEFF 		bl	__aeabi_dmul
  62              	.LVL5:
  30:Calculations.c ****     
  31:Calculations.c ****     // create a map to map 0-256 to 10-150
  32:Calculations.c ****     // will be affected by yscale
  33:Calculations.c ****     //double slope = 1.0 * (212 - 0) / (256 - 0);
  34:Calculations.c ****     //d = 0 + (slope * (d));
  35:Calculations.c ****     //d = floor(d + 0.5);
  36:Calculations.c ****     return (int) d;
  63              		.loc 1 36 0
  64 0028 FFF7FEFF 		bl	__aeabi_d2iz
  65              	.LVL6:
  37:Calculations.c **** }
  66              		.loc 1 37 0
  67 002c 70BD     		pop	{r4, r5, r6, pc}
  68              	.LVL7:
  69              	.L4:
  70 002e 00BF     		.align	3
  71              	.L3:
  72 0030 0000303F 		.word	1060110336
  73 0034 00000000 		.word	0
  74 0038 00C8A940 		.word	1084868608
  75              		.cfi_endproc
  76              	.LFE688:
  77              		.size	findAmp, .-findAmp
ARM GAS  C:\Users\dasta\AppData\Local\Temp\cczVSuOv.s 			page 3


  78              		.section	.text.findSlope,"ax",%progbits
  79              		.align	2
  80              		.global	findSlope
  81              		.thumb
  82              		.thumb_func
  83              		.type	findSlope, %function
  84              	findSlope:
  85              	.LFB690:
  38:Calculations.c **** 
  39:Calculations.c **** // returns idx if edge has been detected, otherwise returns FALSE
  40:Calculations.c **** int triggerDetection(Settings config, int *data, double psy)
  41:Calculations.c **** {
  42:Calculations.c ****     int *d;
  43:Calculations.c ****     d = avgSmoothing(data, psy);
  44:Calculations.c ****     int i = 0;
  45:Calculations.c ****     int tlevel = findAmp(psy, config.trigl);
  46:Calculations.c ****     for (; i < MAX_SIZE; i++){
  47:Calculations.c ****         if (i > 0 && i < MAX_SIZE){
  48:Calculations.c ****             if (config.slope == POS_SLOPE){
  49:Calculations.c ****                 if (d[i-1] < tlevel && d[i] >= tlevel && findSlope(d[i-1], d[i]) > 0){
  50:Calculations.c ****                     return i;
  51:Calculations.c ****                 }
  52:Calculations.c ****             } else if (config.slope == NEG_SLOPE){
  53:Calculations.c ****                 if (d[i-1] > tlevel && d[i] <= tlevel && findSlope(d[i-1], d[i]) < 0){
  54:Calculations.c ****                     return i;
  55:Calculations.c ****                 }
  56:Calculations.c ****             }
  57:Calculations.c ****         }
  58:Calculations.c ****     }
  59:Calculations.c ****     return FALSE;
  60:Calculations.c **** }
  61:Calculations.c **** 
  62:Calculations.c **** int findSlope(int p1, int p2)
  63:Calculations.c **** {
  86              		.loc 1 63 0
  87              		.cfi_startproc
  88              		@ args = 0, pretend = 0, frame = 0
  89              		@ frame_needed = 0, uses_anonymous_args = 0
  90              		@ link register save eliminated.
  91              	.LVL8:
  64:Calculations.c ****     return p2 - p1;
  65:Calculations.c **** }
  92              		.loc 1 65 0
  93 0000 081A     		subs	r0, r1, r0
  94              	.LVL9:
  95 0002 7047     		bx	lr
  96              		.cfi_endproc
  97              	.LFE690:
  98              		.size	findSlope, .-findSlope
  99              		.section	.text.avgSmoothing,"ax",%progbits
 100              		.align	2
 101              		.global	avgSmoothing
 102              		.thumb
 103              		.thumb_func
 104              		.type	avgSmoothing, %function
 105              	avgSmoothing:
 106              	.LFB691:
ARM GAS  C:\Users\dasta\AppData\Local\Temp\cczVSuOv.s 			page 4


  66:Calculations.c **** 
  67:Calculations.c **** // helper function to triggerDetection
  68:Calculations.c **** int *avgSmoothing(int *data, double psy)
  69:Calculations.c **** {
 107              		.loc 1 69 0
 108              		.cfi_startproc
 109              		@ args = 0, pretend = 0, frame = 1024
 110              		@ frame_needed = 0, uses_anonymous_args = 0
 111              	.LVL10:
 112 0000 F0B5     		push	{r4, r5, r6, r7, lr}
 113              		.cfi_def_cfa_offset 20
 114              		.cfi_offset 4, -20
 115              		.cfi_offset 5, -16
 116              		.cfi_offset 6, -12
 117              		.cfi_offset 7, -8
 118              		.cfi_offset 14, -4
 119 0002 ADF2044D 		subw	sp, sp, #1028
 120              		.cfi_def_cfa_offset 1048
 121 0006 0546     		mov	r5, r0
 122 0008 1646     		mov	r6, r2
 123 000a 1F46     		mov	r7, r3
 124              	.LVL11:
  70:Calculations.c ****     // running avg - stores data in new array and returns it
  71:Calculations.c ****     int c[MAX_SIZE];
  72:Calculations.c ****     static int d[MAX_SIZE];
  73:Calculations.c ****     int i = 0;
 125              		.loc 1 73 0
 126 000c 0024     		movs	r4, #0
  74:Calculations.c ****     for (; i < MAX_SIZE; i++){
 127              		.loc 1 74 0
 128 000e 2FE0     		b	.L7
 129              	.LVL12:
 130              	.L10:
  75:Calculations.c ****         c[i] = findAmp(psy, data[i] & BITMASKADC);
 131              		.loc 1 75 0
 132 0010 55F82420 		ldr	r2, [r5, r4, lsl #2]
 133 0014 C2F30B02 		ubfx	r2, r2, #0, #12
 134 0018 3046     		mov	r0, r6
 135 001a 3946     		mov	r1, r7
 136 001c FFF7FEFF 		bl	findAmp
 137              	.LVL13:
 138 0020 4DF82400 		str	r0, [sp, r4, lsl #2]
  76:Calculations.c ****         if (i > 4 && i < MAX_SIZE){
 139              		.loc 1 76 0
 140 0024 631F     		subs	r3, r4, #5
 141 0026 FA2B     		cmp	r3, #250
 142 0028 1CD8     		bhi	.L8
  77:Calculations.c ****             d[i] = (c[i-4] + (2 * c[i-3]) + (3 * c[i-2]) + (2 * c[i-1]) + c[i]) / 9;
 143              		.loc 1 77 0
 144 002a 231F     		subs	r3, r4, #4
 145 002c 5DF82330 		ldr	r3, [sp, r3, lsl #2]
 146 0030 E21E     		subs	r2, r4, #3
 147 0032 5DF82220 		ldr	r2, [sp, r2, lsl #2]
 148 0036 03EB4202 		add	r2, r3, r2, lsl #1
 149 003a A31E     		subs	r3, r4, #2
 150 003c 5DF82330 		ldr	r3, [sp, r3, lsl #2]
 151 0040 03EB4303 		add	r3, r3, r3, lsl #1
ARM GAS  C:\Users\dasta\AppData\Local\Temp\cczVSuOv.s 			page 5


 152 0044 1344     		add	r3, r3, r2
 153 0046 621E     		subs	r2, r4, #1
 154 0048 5DF82220 		ldr	r2, [sp, r2, lsl #2]
 155 004c 03EB4203 		add	r3, r3, r2, lsl #1
 156 0050 0344     		add	r3, r3, r0
 157 0052 0A4A     		ldr	r2, .L12
 158 0054 82FB0312 		smull	r1, r2, r2, r3
 159 0058 DB17     		asrs	r3, r3, #31
 160 005a C3EB6203 		rsb	r3, r3, r2, asr #1
 161 005e 084A     		ldr	r2, .L12+4
 162 0060 42F82430 		str	r3, [r2, r4, lsl #2]
 163              	.L8:
  78:Calculations.c ****         }
  79:Calculations.c ****         if (i < 4) d[i] = c[i];
 164              		.loc 1 79 0
 165 0064 032C     		cmp	r4, #3
 166 0066 02DC     		bgt	.L9
 167              		.loc 1 79 0 is_stmt 0 discriminator 1
 168 0068 054B     		ldr	r3, .L12+4
 169 006a 43F82400 		str	r0, [r3, r4, lsl #2]
 170              	.L9:
  74:Calculations.c ****         c[i] = findAmp(psy, data[i] & BITMASKADC);
 171              		.loc 1 74 0 is_stmt 1
 172 006e 0134     		adds	r4, r4, #1
 173              	.LVL14:
 174              	.L7:
  74:Calculations.c ****         c[i] = findAmp(psy, data[i] & BITMASKADC);
 175              		.loc 1 74 0 is_stmt 0 discriminator 1
 176 0070 FF2C     		cmp	r4, #255
 177 0072 CDDD     		ble	.L10
  80:Calculations.c ****     }
  81:Calculations.c ****     return d;
  82:Calculations.c **** }
 178              		.loc 1 82 0 is_stmt 1
 179 0074 0248     		ldr	r0, .L12+4
 180 0076 0DF2044D 		addw	sp, sp, #1028
 181              		.cfi_def_cfa_offset 20
 182              		@ sp needed
 183 007a F0BD     		pop	{r4, r5, r6, r7, pc}
 184              	.LVL15:
 185              	.L13:
 186              		.align	2
 187              	.L12:
 188 007c 398EE338 		.word	954437177
 189 0080 00000000 		.word	.LANCHOR0
 190              		.cfi_endproc
 191              	.LFE691:
 192              		.size	avgSmoothing, .-avgSmoothing
 193              		.section	.text.triggerDetection,"ax",%progbits
 194              		.align	2
 195              		.global	triggerDetection
 196              		.thumb
 197              		.thumb_func
 198              		.type	triggerDetection, %function
 199              	triggerDetection:
 200              	.LFB689:
  41:Calculations.c ****     int *d;
ARM GAS  C:\Users\dasta\AppData\Local\Temp\cczVSuOv.s 			page 6


 201              		.loc 1 41 0
 202              		.cfi_startproc
 203              		@ args = 48, pretend = 16, frame = 0
 204              		@ frame_needed = 0, uses_anonymous_args = 0
 205              	.LVL16:
 206 0000 84B0     		sub	sp, sp, #16
 207              		.cfi_def_cfa_offset 16
 208 0002 70B5     		push	{r4, r5, r6, lr}
 209              		.cfi_def_cfa_offset 32
 210              		.cfi_offset 4, -32
 211              		.cfi_offset 5, -28
 212              		.cfi_offset 6, -24
 213              		.cfi_offset 14, -20
 214 0004 04AC     		add	r4, sp, #16
 215 0006 84E80F00 		stmia	r4, {r0, r1, r2, r3}
  43:Calculations.c ****     int i = 0;
 216              		.loc 1 43 0
 217 000a DDE90E23 		ldrd	r2, [sp, #56]
 218 000e 0C98     		ldr	r0, [sp, #48]
 219 0010 FFF7FEFF 		bl	avgSmoothing
 220              	.LVL17:
 221 0014 0646     		mov	r6, r0
 222              	.LVL18:
  45:Calculations.c ****     for (; i < MAX_SIZE; i++){
 223              		.loc 1 45 0
 224 0016 0A9A     		ldr	r2, [sp, #40]
 225 0018 DDE90E01 		ldrd	r0, [sp, #56]
 226              	.LVL19:
 227 001c FFF7FEFF 		bl	findAmp
 228              	.LVL20:
 229 0020 0546     		mov	r5, r0
 230              	.LVL21:
  44:Calculations.c ****     int tlevel = findAmp(psy, config.trigl);
 231              		.loc 1 44 0
 232 0022 0024     		movs	r4, #0
  46:Calculations.c ****         if (i > 0 && i < MAX_SIZE){
 233              		.loc 1 46 0
 234 0024 28E0     		b	.L15
 235              	.LVL22:
 236              	.L19:
  47:Calculations.c ****             if (config.slope == POS_SLOPE){
 237              		.loc 1 47 0
 238 0026 631E     		subs	r3, r4, #1
 239 0028 FE2B     		cmp	r3, #254
 240 002a 24D8     		bhi	.L16
  48:Calculations.c ****                 if (d[i-1] < tlevel && d[i] >= tlevel && findSlope(d[i-1], d[i]) > 0){
 241              		.loc 1 48 0
 242 002c 099B     		ldr	r3, [sp, #36]
 243 002e 012B     		cmp	r3, #1
 244 0030 0FD1     		bne	.L17
  49:Calculations.c ****                     return i;
 245              		.loc 1 49 0
 246 0032 04F18043 		add	r3, r4, #1073741824
 247 0036 013B     		subs	r3, r3, #1
 248 0038 56F82300 		ldr	r0, [r6, r3, lsl #2]
 249 003c 8542     		cmp	r5, r0
 250 003e 1ADD     		ble	.L16
ARM GAS  C:\Users\dasta\AppData\Local\Temp\cczVSuOv.s 			page 7


  49:Calculations.c ****                     return i;
 251              		.loc 1 49 0 is_stmt 0 discriminator 1
 252 0040 56F82410 		ldr	r1, [r6, r4, lsl #2]
 253 0044 8D42     		cmp	r5, r1
 254 0046 16DC     		bgt	.L16
  49:Calculations.c ****                     return i;
 255              		.loc 1 49 0 discriminator 2
 256 0048 FFF7FEFF 		bl	findSlope
 257              	.LVL23:
 258 004c 0028     		cmp	r0, #0
 259 004e 12DD     		ble	.L16
 260 0050 16E0     		b	.L20
 261              	.L17:
  52:Calculations.c ****                 if (d[i-1] > tlevel && d[i] <= tlevel && findSlope(d[i-1], d[i]) < 0){
 262              		.loc 1 52 0 is_stmt 1
 263 0052 B3F1FF3F 		cmp	r3, #-1
 264 0056 0ED1     		bne	.L16
  53:Calculations.c ****                     return i;
 265              		.loc 1 53 0
 266 0058 04F18043 		add	r3, r4, #1073741824
 267 005c 013B     		subs	r3, r3, #1
 268 005e 56F82300 		ldr	r0, [r6, r3, lsl #2]
 269 0062 8542     		cmp	r5, r0
 270 0064 07DA     		bge	.L16
  53:Calculations.c ****                     return i;
 271              		.loc 1 53 0 is_stmt 0 discriminator 1
 272 0066 56F82410 		ldr	r1, [r6, r4, lsl #2]
 273 006a 8D42     		cmp	r5, r1
 274 006c 03DB     		blt	.L16
  53:Calculations.c ****                     return i;
 275              		.loc 1 53 0 discriminator 2
 276 006e FFF7FEFF 		bl	findSlope
 277              	.LVL24:
 278 0072 0028     		cmp	r0, #0
 279 0074 06DB     		blt	.L21
 280              	.L16:
  46:Calculations.c ****         if (i > 0 && i < MAX_SIZE){
 281              		.loc 1 46 0 is_stmt 1
 282 0076 0134     		adds	r4, r4, #1
 283              	.LVL25:
 284              	.L15:
  46:Calculations.c ****         if (i > 0 && i < MAX_SIZE){
 285              		.loc 1 46 0 is_stmt 0 discriminator 1
 286 0078 FF2C     		cmp	r4, #255
 287 007a D4DD     		ble	.L19
  59:Calculations.c **** }
 288              		.loc 1 59 0 is_stmt 1
 289 007c 0020     		movs	r0, #0
 290 007e 02E0     		b	.L18
 291              	.L20:
  50:Calculations.c ****                 }
 292              		.loc 1 50 0
 293 0080 2046     		mov	r0, r4
 294 0082 00E0     		b	.L18
 295              	.L21:
  54:Calculations.c ****                 }
 296              		.loc 1 54 0
ARM GAS  C:\Users\dasta\AppData\Local\Temp\cczVSuOv.s 			page 8


 297 0084 2046     		mov	r0, r4
 298              	.L18:
  60:Calculations.c **** 
 299              		.loc 1 60 0
 300 0086 BDE87040 		pop	{r4, r5, r6, lr}
 301              		.cfi_restore 14
 302              		.cfi_restore 6
 303              		.cfi_restore 5
 304              		.cfi_restore 4
 305              		.cfi_def_cfa_offset 16
 306              	.LVL26:
 307 008a 04B0     		add	sp, sp, #16
 308              		.cfi_def_cfa_offset 0
 309 008c 7047     		bx	lr
 310              		.cfi_endproc
 311              	.LFE689:
 312              		.size	triggerDetection, .-triggerDetection
 313 008e 00BF     		.bss
 314              		.align	2
 315              		.set	.LANCHOR0,. + 0
 316              		.type	d.21990, %object
 317              		.size	d.21990, 1024
 318              	d.21990:
 319 0000 00000000 		.space	1024
 319      00000000 
 319      00000000 
 319      00000000 
 319      00000000 
 320              		.text
 321              	.Letext0:
 322              		.file 2 "c:\\program files (x86)\\cypress\\psoc creator\\4.3\\psoc creator\\import\\gnu\\arm\\5.4.
 323              		.file 3 "c:\\program files (x86)\\cypress\\psoc creator\\4.3\\psoc creator\\import\\gnu\\arm\\5.4.
 324              		.file 4 "Generated_Source\\PSoC6\\pdl\\drivers/peripheral/device/cy_device.h"
 325              		.file 5 "Generated_Source\\PSoC6\\pdl\\drivers/peripheral/sar/cy_sar.h"
 326              		.file 6 "Generated_Source\\PSoC6\\pdl\\drivers/peripheral/scb/cy_scb_uart.h"
 327              		.file 7 "Generated_Source\\PSoC6/ADC.h"
 328              		.file 8 "./TinyScope.h"
 329              		.file 9 "Generated_Source\\PSoC6\\pdl\\cmsis/include/core_cm4.h"
 330              		.file 10 "Generated_Source\\PSoC6/UART.h"