ARM GAS  C:\Users\dasta\AppData\Local\Temp\ccTxLCoO.s 			page 1


   1              		.syntax unified
   2              		.cpu cortex-m4
   3              		.eabi_attribute 27, 1
   4              		.fpu fpv4-sp-d16
   5              		.eabi_attribute 20, 1
   6              		.eabi_attribute 21, 1
   7              		.eabi_attribute 23, 3
   8              		.eabi_attribute 24, 1
   9              		.eabi_attribute 25, 1
  10              		.eabi_attribute 26, 1
  11              		.eabi_attribute 30, 1
  12              		.eabi_attribute 34, 1
  13              		.eabi_attribute 18, 4
  14              		.thumb
  15              		.syntax unified
  16              		.file	"Display.c"
  17              		.text
  18              	.Ltext0:
  19              		.cfi_sections	.debug_frame
  20              		.section	.text.Startup,"ax",%progbits
  21              		.align	2
  22              		.global	Startup
  23              		.thumb
  24              		.thumb_func
  25              		.type	Startup, %function
  26              	Startup:
  27              	.LFB688:
  28              		.file 1 "Display.c"
   1:Display.c     **** #include <TinyScope.h>
   2:Display.c     **** #include "project.h"
   3:Display.c     **** #include "string.h"
   4:Display.c     **** #include "math.h"
   5:Display.c     **** #include "stdio.h"
   6:Display.c     **** #include "stdlib.h"
   7:Display.c     **** 
   8:Display.c     **** /****************************************************
   9:Display.c     ****  *
  10:Display.c     ****  * LCD SCREEN AND WAVEFORM FUNCTIONS
  11:Display.c     ****  *
  12:Display.c     **** ****************************************************/
  13:Display.c     **** void Startup(void)
  14:Display.c     **** {
  29              		.loc 1 14 0
  30              		.cfi_startproc
  31              		@ args = 0, pretend = 0, frame = 0
  32              		@ frame_needed = 0, uses_anonymous_args = 0
  33 0000 08B5     		push	{r3, lr}
  34              		.cfi_def_cfa_offset 8
  35              		.cfi_offset 3, -8
  36              		.cfi_offset 14, -4
  15:Display.c     **** /* Set font size, foreground and background colors */
  16:Display.c     ****     GUI_SetFont(GUI_FONT_32B_1);
  37              		.loc 1 16 0
  38 0002 1148     		ldr	r0, .L3
  39 0004 FFF7FEFF 		bl	GUI_SetFont
  40              	.LVL0:
  17:Display.c     ****     GUI_SetBkColor(GUI_BLUE);
ARM GAS  C:\Users\dasta\AppData\Local\Temp\ccTxLCoO.s 			page 2


  41              		.loc 1 17 0
  42 0008 4FF47F00 		mov	r0, #16711680
  43 000c FFF7FEFF 		bl	GUI_SetBkColor
  44              	.LVL1:
  18:Display.c     ****     GUI_SetColor(GUI_LIGHTMAGENTA);
  45              		.loc 1 18 0
  46 0010 0E48     		ldr	r0, .L3+4
  47 0012 FFF7FEFF 		bl	GUI_SetColor
  48              	.LVL2:
  19:Display.c     ****     GUI_Clear();
  49              		.loc 1 19 0
  50 0016 FFF7FEFF 		bl	GUI_Clear
  51              	.LVL3:
  20:Display.c     ****   
  21:Display.c     ****     GUI_SetTextAlign(GUI_TA_HCENTER | GUI_TA_VCENTER);
  52              		.loc 1 21 0
  53 001a 0E20     		movs	r0, #14
  54 001c FFF7FEFF 		bl	GUI_SetTextAlign
  55              	.LVL4:
  22:Display.c     ****     GUI_DispStringAt("TinyScope", 160, 120);
  56              		.loc 1 22 0
  57 0020 7822     		movs	r2, #120
  58 0022 A021     		movs	r1, #160
  59 0024 0A48     		ldr	r0, .L3+8
  60 0026 FFF7FEFF 		bl	GUI_DispStringAt
  61              	.LVL5:
  23:Display.c     ****     
  24:Display.c     ****     GUI_SetFont(GUI_FONT_24B_1);
  62              		.loc 1 24 0
  63 002a 0A48     		ldr	r0, .L3+12
  64 002c FFF7FEFF 		bl	GUI_SetFont
  65              	.LVL6:
  25:Display.c     ****     GUI_SetColor(GUI_LIGHTGREEN);
  66              		.loc 1 25 0
  67 0030 0948     		ldr	r0, .L3+16
  68 0032 FFF7FEFF 		bl	GUI_SetColor
  69              	.LVL7:
  26:Display.c     ****     GUI_SetTextAlign(GUI_TA_HCENTER);
  70              		.loc 1 26 0
  71 0036 0220     		movs	r0, #2
  72 0038 FFF7FEFF 		bl	GUI_SetTextAlign
  73              	.LVL8:
  27:Display.c     ****     GUI_DispStringAt("CSE 121/L Final Project", 160, 200);
  74              		.loc 1 27 0
  75 003c C822     		movs	r2, #200
  76 003e A021     		movs	r1, #160
  77 0040 0648     		ldr	r0, .L3+20
  78 0042 FFF7FEFF 		bl	GUI_DispStringAt
  79              	.LVL9:
  80 0046 08BD     		pop	{r3, pc}
  81              	.L4:
  82              		.align	2
  83              	.L3:
  84 0048 00000000 		.word	GUI_Font32B_1
  85 004c FF80FF00 		.word	16744703
  86 0050 00000000 		.word	.LC0
  87 0054 00000000 		.word	GUI_Font24B_1
ARM GAS  C:\Users\dasta\AppData\Local\Temp\ccTxLCoO.s 			page 3


  88 0058 80FF8000 		.word	8454016
  89 005c 0C000000 		.word	.LC1
  90              		.cfi_endproc
  91              	.LFE688:
  92              		.size	Startup, .-Startup
  93              		.section	.text.DrawBG,"ax",%progbits
  94              		.align	2
  95              		.global	DrawBG
  96              		.thumb
  97              		.thumb_func
  98              		.type	DrawBG, %function
  99              	DrawBG:
 100              	.LFB690:
  28:Display.c     **** }
  29:Display.c     **** 
  30:Display.c     **** void RefreshDisplay(Settings config)
  31:Display.c     **** {
  32:Display.c     ****     /* Display background */
  33:Display.c     ****     //DrawBG(XSIZE, YSIZE, XMARGIN, YMARGIN);
  34:Display.c     ****     /* Display grid*/
  35:Display.c     ****     DrawGrid(XSIZE, YSIZE, XDIVISIONS, YDIVISIONS, XMARGIN, YMARGIN);
  36:Display.c     ****     /* Display scale settings */
  37:Display.c     ****     DrawScale(SCALE_POS_X, SCALE_POS_Y, config.xscale, config.yscale);
  38:Display.c     ****     /* Display frequency */
  39:Display.c     ****     DrawFreq(FREQUENCY_POS_X, FREQUENCY_POS_Y, config.freq1, config.freq2);
  40:Display.c     **** }
  41:Display.c     **** 
  42:Display.c     **** void DrawBG(int x, int y, int xm, int ym)
  43:Display.c     **** {
 101              		.loc 1 43 0
 102              		.cfi_startproc
 103              		@ args = 0, pretend = 0, frame = 0
 104              		@ frame_needed = 0, uses_anonymous_args = 0
 105              	.LVL10:
 106 0000 F8B5     		push	{r3, r4, r5, r6, r7, lr}
 107              		.cfi_def_cfa_offset 24
 108              		.cfi_offset 3, -24
 109              		.cfi_offset 4, -20
 110              		.cfi_offset 5, -16
 111              		.cfi_offset 6, -12
 112              		.cfi_offset 7, -8
 113              		.cfi_offset 14, -4
 114 0002 0646     		mov	r6, r0
 115 0004 0F46     		mov	r7, r1
 116 0006 1446     		mov	r4, r2
 117 0008 1D46     		mov	r5, r3
  44:Display.c     ****    GUI_SetBkColor(GUI_BLACK);
 118              		.loc 1 44 0
 119 000a 0020     		movs	r0, #0
 120              	.LVL11:
 121 000c FFF7FEFF 		bl	GUI_SetBkColor
 122              	.LVL12:
  45:Display.c     ****    GUI_SetColor(GUI_DARKCYAN);
 123              		.loc 1 45 0
 124 0010 0C48     		ldr	r0, .L7
 125 0012 FFF7FEFF 		bl	GUI_SetColor
 126              	.LVL13:
ARM GAS  C:\Users\dasta\AppData\Local\Temp\ccTxLCoO.s 			page 4


  46:Display.c     ****    GUI_FillRect(0, 0, x, y);
 127              		.loc 1 46 0
 128 0016 3B46     		mov	r3, r7
 129 0018 3246     		mov	r2, r6
 130 001a 0021     		movs	r1, #0
 131 001c 0846     		mov	r0, r1
 132 001e FFF7FEFF 		bl	GUI_FillRect
 133              	.LVL14:
  47:Display.c     ****    GUI_SetPenSize(1);
 134              		.loc 1 47 0
 135 0022 0120     		movs	r0, #1
 136 0024 FFF7FEFF 		bl	GUI_SetPenSize
 137              	.LVL15:
  48:Display.c     ****    GUI_SetColor(GUI_LIGHTGRAY);
 138              		.loc 1 48 0
 139 0028 0748     		ldr	r0, .L7+4
 140 002a FFF7FEFF 		bl	GUI_SetColor
 141              	.LVL16:
  49:Display.c     ****    GUI_DrawRect(xm, ym, x-xm, y-ym);
 142              		.loc 1 49 0
 143 002e 7B1B     		subs	r3, r7, r5
 144 0030 321B     		subs	r2, r6, r4
 145 0032 2946     		mov	r1, r5
 146 0034 2046     		mov	r0, r4
 147 0036 FFF7FEFF 		bl	GUI_DrawRect
 148              	.LVL17:
  50:Display.c     ****    GUI_SetLineStyle(GUI_LS_DOT);
 149              		.loc 1 50 0
 150 003a 0220     		movs	r0, #2
 151 003c FFF7FEFF 		bl	GUI_SetLineStyle
 152              	.LVL18:
 153 0040 F8BD     		pop	{r3, r4, r5, r6, r7, pc}
 154              	.LVL19:
 155              	.L8:
 156 0042 00BF     		.align	2
 157              	.L7:
 158 0044 00808000 		.word	8421376
 159 0048 D3D3D300 		.word	13882323
 160              		.cfi_endproc
 161              	.LFE690:
 162              		.size	DrawBG, .-DrawBG
 163              		.section	.text.DrawGrid,"ax",%progbits
 164              		.align	2
 165              		.global	DrawGrid
 166              		.thumb
 167              		.thumb_func
 168              		.type	DrawGrid, %function
 169              	DrawGrid:
 170              	.LFB691:
  51:Display.c     **** }
  52:Display.c     **** 
  53:Display.c     **** void DrawGrid(int x, int y, int xd, int yd, int xm, int ym)
  54:Display.c     **** {
 171              		.loc 1 54 0
 172              		.cfi_startproc
 173              		@ args = 8, pretend = 0, frame = 8
 174              		@ frame_needed = 0, uses_anonymous_args = 0
ARM GAS  C:\Users\dasta\AppData\Local\Temp\ccTxLCoO.s 			page 5


 175              	.LVL20:
 176 0000 2DE9F04F 		push	{r4, r5, r6, r7, r8, r9, r10, fp, lr}
 177              		.cfi_def_cfa_offset 36
 178              		.cfi_offset 4, -36
 179              		.cfi_offset 5, -32
 180              		.cfi_offset 6, -28
 181              		.cfi_offset 7, -24
 182              		.cfi_offset 8, -20
 183              		.cfi_offset 9, -16
 184              		.cfi_offset 10, -12
 185              		.cfi_offset 11, -8
 186              		.cfi_offset 14, -4
 187 0004 83B0     		sub	sp, sp, #12
 188              		.cfi_def_cfa_offset 48
 189 0006 8346     		mov	fp, r0
 190 0008 8A46     		mov	r10, r1
 191 000a 1746     		mov	r7, r2
 192 000c 9946     		mov	r9, r3
 193 000e 0C9D     		ldr	r5, [sp, #48]
 194 0010 0D9E     		ldr	r6, [sp, #52]
  55:Display.c     ****     int xstep = (x-xm*2)/xd;
 195              		.loc 1 55 0
 196 0012 A0EB4503 		sub	r3, r0, r5, lsl #1
 197              	.LVL21:
 198 0016 93FBF2F3 		sdiv	r3, r3, r2
 199 001a 0193     		str	r3, [sp, #4]
 200              	.LVL22:
  56:Display.c     ****     int ystep = (y-ym*2)/yd;
 201              		.loc 1 56 0
 202 001c A1EB4608 		sub	r8, r1, r6, lsl #1
 203 0020 98FBF9F8 		sdiv	r8, r8, r9
 204              	.LVL23:
  57:Display.c     ****     GUI_SetPenSize(1);
 205              		.loc 1 57 0
 206 0024 0120     		movs	r0, #1
 207              	.LVL24:
 208 0026 FFF7FEFF 		bl	GUI_SetPenSize
 209              	.LVL25:
  58:Display.c     ****     GUI_SetColor(GUI_LIGHTGRAY);
 210              		.loc 1 58 0
 211 002a 1248     		ldr	r0, .L15
 212 002c FFF7FEFF 		bl	GUI_SetColor
 213              	.LVL26:
  59:Display.c     ****     GUI_SetLineStyle(GUI_LS_DOT);
 214              		.loc 1 59 0
 215 0030 0220     		movs	r0, #2
 216 0032 FFF7FEFF 		bl	GUI_SetLineStyle
 217              	.LVL27:
 218              	.LBB2:
  60:Display.c     ****     for (int i=1; i<yd; i++){
 219              		.loc 1 60 0
 220 0036 0124     		movs	r4, #1
 221 0038 08E0     		b	.L10
 222              	.LVL28:
 223              	.L11:
  61:Display.c     ****         GUI_DrawLine(xm, ym+i*ystep, x-xm, ym+i*ystep);
 224              		.loc 1 61 0 discriminator 3
ARM GAS  C:\Users\dasta\AppData\Local\Temp\ccTxLCoO.s 			page 6


 225 003a 08FB0461 		mla	r1, r8, r4, r6
 226 003e 0B46     		mov	r3, r1
 227 0040 C5EB0B02 		rsb	r2, r5, fp
 228 0044 2846     		mov	r0, r5
 229 0046 FFF7FEFF 		bl	GUI_DrawLine
 230              	.LVL29:
  60:Display.c     ****     for (int i=1; i<yd; i++){
 231              		.loc 1 60 0 discriminator 3
 232 004a 0134     		adds	r4, r4, #1
 233              	.LVL30:
 234              	.L10:
  60:Display.c     ****     for (int i=1; i<yd; i++){
 235              		.loc 1 60 0 is_stmt 0 discriminator 1
 236 004c 4C45     		cmp	r4, r9
 237 004e F4DB     		blt	.L11
 238 0050 0124     		movs	r4, #1
 239              	.LVL31:
 240 0052 DDF80480 		ldr	r8, [sp, #4]
 241              	.LVL32:
 242 0056 08E0     		b	.L12
 243              	.LVL33:
 244              	.L13:
 245              	.LBE2:
 246              	.LBB3:
  62:Display.c     ****     }
  63:Display.c     ****     for (int i=1; i<xd; i++){
  64:Display.c     ****         GUI_DrawLine(xm+i*xstep, ym, xm+i*xstep, y-ym);
 247              		.loc 1 64 0 is_stmt 1 discriminator 3
 248 0058 08FB0450 		mla	r0, r8, r4, r5
 249 005c C6EB0A03 		rsb	r3, r6, r10
 250 0060 0246     		mov	r2, r0
 251 0062 3146     		mov	r1, r6
 252 0064 FFF7FEFF 		bl	GUI_DrawLine
 253              	.LVL34:
  63:Display.c     ****         GUI_DrawLine(xm+i*xstep, ym, xm+i*xstep, y-ym);
 254              		.loc 1 63 0 discriminator 3
 255 0068 0134     		adds	r4, r4, #1
 256              	.LVL35:
 257              	.L12:
  63:Display.c     ****         GUI_DrawLine(xm+i*xstep, ym, xm+i*xstep, y-ym);
 258              		.loc 1 63 0 is_stmt 0 discriminator 1
 259 006a BC42     		cmp	r4, r7
 260 006c F4DB     		blt	.L13
 261              	.LBE3:
  65:Display.c     ****     }
  66:Display.c     **** }
 262              		.loc 1 66 0 is_stmt 1
 263 006e 03B0     		add	sp, sp, #12
 264              		.cfi_def_cfa_offset 36
 265              		@ sp needed
 266 0070 BDE8F08F 		pop	{r4, r5, r6, r7, r8, r9, r10, fp, pc}
 267              	.LVL36:
 268              	.L16:
 269              		.align	2
 270              	.L15:
 271 0074 D3D3D300 		.word	13882323
 272              		.cfi_endproc
ARM GAS  C:\Users\dasta\AppData\Local\Temp\ccTxLCoO.s 			page 7


 273              	.LFE691:
 274              		.size	DrawGrid, .-DrawGrid
 275              		.section	.text.DrawScale,"ax",%progbits
 276              		.align	2
 277              		.global	DrawScale
 278              		.thumb
 279              		.thumb_func
 280              		.type	DrawScale, %function
 281              	DrawScale:
 282              	.LFB692:
  67:Display.c     **** 
  68:Display.c     **** void DrawScale(int x, int y, int xs, int ys)
  69:Display.c     **** {
 283              		.loc 1 69 0
 284              		.cfi_startproc
 285              		@ args = 0, pretend = 0, frame = 24
 286              		@ frame_needed = 0, uses_anonymous_args = 0
 287              	.LVL37:
 288 0000 F0B5     		push	{r4, r5, r6, r7, lr}
 289              		.cfi_def_cfa_offset 20
 290              		.cfi_offset 4, -20
 291              		.cfi_offset 5, -16
 292              		.cfi_offset 6, -12
 293              		.cfi_offset 7, -8
 294              		.cfi_offset 14, -4
 295 0002 87B0     		sub	sp, sp, #28
 296              		.cfi_def_cfa_offset 48
 297 0004 0546     		mov	r5, r0
 298 0006 0E46     		mov	r6, r1
 299 0008 1746     		mov	r7, r2
 300 000a 1C46     		mov	r4, r3
  70:Display.c     ****     char str[20];
  71:Display.c     ****     
  72:Display.c     ****     GUI_SetBkColor(GUI_DARKCYAN); // Set background color
 301              		.loc 1 72 0
 302 000c 2248     		ldr	r0, .L23
 303              	.LVL38:
 304 000e FFF7FEFF 		bl	GUI_SetBkColor
 305              	.LVL39:
  73:Display.c     ****     GUI_SetFont(GUI_FONT_16B_1); // Set font
 306              		.loc 1 73 0
 307 0012 2248     		ldr	r0, .L23+4
 308 0014 FFF7FEFF 		bl	GUI_SetFont
 309              	.LVL40:
  74:Display.c     ****     GUI_SetColor(GUI_LIGHTGRAY); // Set foreground color
 310              		.loc 1 74 0
 311 0018 2148     		ldr	r0, .L23+8
 312 001a FFF7FEFF 		bl	GUI_SetColor
 313              	.LVL41:
  75:Display.c     ****     // display x scale
  76:Display.c     ****     if (xs >= 1000)
 314              		.loc 1 76 0
 315 001e B7F57A7F 		cmp	r7, #1000
 316 0022 0ADB     		blt	.L18
  77:Display.c     ****         sprintf(str, "Xscale: %0d ms/div", xs/1000);
 317              		.loc 1 77 0
 318 0024 1F4A     		ldr	r2, .L23+12
ARM GAS  C:\Users\dasta\AppData\Local\Temp\ccTxLCoO.s 			page 8


 319 0026 82FB0732 		smull	r3, r2, r2, r7
 320 002a FF17     		asrs	r7, r7, #31
 321              	.LVL42:
 322 002c C7EBA212 		rsb	r2, r7, r2, asr #6
 323 0030 1D49     		ldr	r1, .L23+16
 324 0032 01A8     		add	r0, sp, #4
 325 0034 FFF7FEFF 		bl	sprintf
 326              	.LVL43:
 327 0038 04E0     		b	.L19
 328              	.LVL44:
 329              	.L18:
  78:Display.c     ****     else
  79:Display.c     ****         sprintf(str, "Xscale: %0d us/div", xs);
 330              		.loc 1 79 0
 331 003a 3A46     		mov	r2, r7
 332 003c 1B49     		ldr	r1, .L23+20
 333 003e 01A8     		add	r0, sp, #4
 334 0040 FFF7FEFF 		bl	sprintf
 335              	.LVL45:
 336              	.L19:
  80:Display.c     ****     GUI_DispStringAt(str, x, y);
 337              		.loc 1 80 0
 338 0044 3246     		mov	r2, r6
 339 0046 2946     		mov	r1, r5
 340 0048 01A8     		add	r0, sp, #4
 341 004a FFF7FEFF 		bl	GUI_DispStringAt
 342              	.LVL46:
  81:Display.c     ****     // display y scale under x scale
  82:Display.c     ****     int yscaleVolts = ys/1000;
 343              		.loc 1 82 0
 344 004e 154A     		ldr	r2, .L23+12
 345 0050 82FB0432 		smull	r3, r2, r2, r4
 346 0054 E317     		asrs	r3, r4, #31
 347 0056 C3EBA212 		rsb	r2, r3, r2, asr #6
 348              	.LVL47:
  83:Display.c     ****     int yscalemVolts = ys % 1000;
 349              		.loc 1 83 0
 350 005a 4FF47A71 		mov	r1, #1000
 351 005e 01FB1241 		mls	r1, r1, r2, r4
 352              	.LVL48:
  84:Display.c     ****     if (ys >= 1000)
 353              		.loc 1 84 0
 354 0062 B4F57A7F 		cmp	r4, #1000
 355 0066 04DB     		blt	.L20
  85:Display.c     ****         sprintf(str, "Yscale: %0d V/div", yscaleVolts);
 356              		.loc 1 85 0
 357 0068 1149     		ldr	r1, .L23+24
 358              	.LVL49:
 359 006a 01A8     		add	r0, sp, #4
 360 006c FFF7FEFF 		bl	sprintf
 361              	.LVL50:
 362 0070 09E0     		b	.L21
 363              	.LVL51:
 364              	.L20:
  86:Display.c     ****     else
  87:Display.c     ****         sprintf(str, "Yscale: %0d.%0d V/div", yscaleVolts, yscalemVolts/100);
 365              		.loc 1 87 0
ARM GAS  C:\Users\dasta\AppData\Local\Temp\ccTxLCoO.s 			page 9


 366 0072 104B     		ldr	r3, .L23+28
 367 0074 83FB0103 		smull	r0, r3, r3, r1
 368 0078 C917     		asrs	r1, r1, #31
 369              	.LVL52:
 370 007a C1EB6313 		rsb	r3, r1, r3, asr #5
 371 007e 0E49     		ldr	r1, .L23+32
 372 0080 01A8     		add	r0, sp, #4
 373 0082 FFF7FEFF 		bl	sprintf
 374              	.LVL53:
 375              	.L21:
  88:Display.c     ****     GUI_DispStringAt(str, x, y + 20);
 376              		.loc 1 88 0
 377 0086 06F11402 		add	r2, r6, #20
 378 008a 2946     		mov	r1, r5
 379 008c 01A8     		add	r0, sp, #4
 380 008e FFF7FEFF 		bl	GUI_DispStringAt
 381              	.LVL54:
  89:Display.c     **** }
 382              		.loc 1 89 0
 383 0092 07B0     		add	sp, sp, #28
 384              		.cfi_def_cfa_offset 20
 385              		@ sp needed
 386 0094 F0BD     		pop	{r4, r5, r6, r7, pc}
 387              	.LVL55:
 388              	.L24:
 389 0096 00BF     		.align	2
 390              	.L23:
 391 0098 00808000 		.word	8421376
 392 009c 00000000 		.word	GUI_Font16B_1
 393 00a0 D3D3D300 		.word	13882323
 394 00a4 D34D6210 		.word	274877907
 395 00a8 24000000 		.word	.LC2
 396 00ac 38000000 		.word	.LC3
 397 00b0 4C000000 		.word	.LC4
 398 00b4 1F85EB51 		.word	1374389535
 399 00b8 60000000 		.word	.LC5
 400              		.cfi_endproc
 401              	.LFE692:
 402              		.size	DrawScale, .-DrawScale
 403              		.section	.text.DrawFreq,"ax",%progbits
 404              		.align	2
 405              		.global	DrawFreq
 406              		.thumb
 407              		.thumb_func
 408              		.type	DrawFreq, %function
 409              	DrawFreq:
 410              	.LFB693:
  90:Display.c     **** 
  91:Display.c     **** void DrawFreq(int x, int y, int xf, int yf)
  92:Display.c     **** {
 411              		.loc 1 92 0
 412              		.cfi_startproc
 413              		@ args = 0, pretend = 0, frame = 24
 414              		@ frame_needed = 0, uses_anonymous_args = 0
 415              	.LVL56:
 416 0000 F0B5     		push	{r4, r5, r6, r7, lr}
 417              		.cfi_def_cfa_offset 20
ARM GAS  C:\Users\dasta\AppData\Local\Temp\ccTxLCoO.s 			page 10


 418              		.cfi_offset 4, -20
 419              		.cfi_offset 5, -16
 420              		.cfi_offset 6, -12
 421              		.cfi_offset 7, -8
 422              		.cfi_offset 14, -4
 423 0002 87B0     		sub	sp, sp, #28
 424              		.cfi_def_cfa_offset 48
 425 0004 0446     		mov	r4, r0
 426 0006 0D46     		mov	r5, r1
 427 0008 1746     		mov	r7, r2
 428 000a 1E46     		mov	r6, r3
  93:Display.c     ****     char str[20];
  94:Display.c     ****     GUI_SetBkColor(GUI_DARKCYAN); // Set background color
 429              		.loc 1 94 0
 430 000c 0F48     		ldr	r0, .L27
 431              	.LVL57:
 432 000e FFF7FEFF 		bl	GUI_SetBkColor
 433              	.LVL58:
  95:Display.c     ****     GUI_SetFont(GUI_FONT_16B_1); // Set font
 434              		.loc 1 95 0
 435 0012 0F48     		ldr	r0, .L27+4
 436 0014 FFF7FEFF 		bl	GUI_SetFont
 437              	.LVL59:
  96:Display.c     ****     GUI_SetColor(GUI_LIGHTGRAY); // Set foreground color
 438              		.loc 1 96 0
 439 0018 0E48     		ldr	r0, .L27+8
 440 001a FFF7FEFF 		bl	GUI_SetColor
 441              	.LVL60:
  97:Display.c     ****     // create freq string and then display it
  98:Display.c     ****     sprintf(str, "Ch 1 Freq: %0d kHz", xf);
 442              		.loc 1 98 0
 443 001e 3A46     		mov	r2, r7
 444 0020 0D49     		ldr	r1, .L27+12
 445 0022 01A8     		add	r0, sp, #4
 446 0024 FFF7FEFF 		bl	sprintf
 447              	.LVL61:
  99:Display.c     ****     GUI_DispStringAt(str, x, y);
 448              		.loc 1 99 0
 449 0028 2A46     		mov	r2, r5
 450 002a 2146     		mov	r1, r4
 451 002c 01A8     		add	r0, sp, #4
 452 002e FFF7FEFF 		bl	GUI_DispStringAt
 453              	.LVL62:
 100:Display.c     ****     sprintf(str, "Ch 2 Freq: %0d kHz", yf);
 454              		.loc 1 100 0
 455 0032 3246     		mov	r2, r6
 456 0034 0949     		ldr	r1, .L27+16
 457 0036 01A8     		add	r0, sp, #4
 458 0038 FFF7FEFF 		bl	sprintf
 459              	.LVL63:
 101:Display.c     ****     GUI_DispStringAt(str, x, y + 20);
 460              		.loc 1 101 0
 461 003c 05F11402 		add	r2, r5, #20
 462 0040 2146     		mov	r1, r4
 463 0042 01A8     		add	r0, sp, #4
 464 0044 FFF7FEFF 		bl	GUI_DispStringAt
 465              	.LVL64:
ARM GAS  C:\Users\dasta\AppData\Local\Temp\ccTxLCoO.s 			page 11


 102:Display.c     **** }
 466              		.loc 1 102 0
 467 0048 07B0     		add	sp, sp, #28
 468              		.cfi_def_cfa_offset 20
 469              		@ sp needed
 470 004a F0BD     		pop	{r4, r5, r6, r7, pc}
 471              	.LVL65:
 472              	.L28:
 473              		.align	2
 474              	.L27:
 475 004c 00808000 		.word	8421376
 476 0050 00000000 		.word	GUI_Font16B_1
 477 0054 D3D3D300 		.word	13882323
 478 0058 78000000 		.word	.LC6
 479 005c 8C000000 		.word	.LC7
 480              		.cfi_endproc
 481              	.LFE693:
 482              		.size	DrawFreq, .-DrawFreq
 483              		.section	.text.RefreshDisplay,"ax",%progbits
 484              		.align	2
 485              		.global	RefreshDisplay
 486              		.thumb
 487              		.thumb_func
 488              		.type	RefreshDisplay, %function
 489              	RefreshDisplay:
 490              	.LFB689:
  31:Display.c     ****     /* Display background */
 491              		.loc 1 31 0
 492              		.cfi_startproc
 493              		@ args = 32, pretend = 16, frame = 0
 494              		@ frame_needed = 0, uses_anonymous_args = 0
 495 0000 84B0     		sub	sp, sp, #16
 496              		.cfi_def_cfa_offset 16
 497 0002 00B5     		push	{lr}
 498              		.cfi_def_cfa_offset 20
 499              		.cfi_offset 14, -20
 500 0004 83B0     		sub	sp, sp, #12
 501              		.cfi_def_cfa_offset 32
 502 0006 0DF1100E 		add	lr, sp, #16
 503 000a 8EE80F00 		stmia	lr, {r0, r1, r2, r3}
  35:Display.c     ****     /* Display scale settings */
 504              		.loc 1 35 0
 505 000e 0423     		movs	r3, #4
 506 0010 0193     		str	r3, [sp, #4]
 507 0012 0523     		movs	r3, #5
 508 0014 0093     		str	r3, [sp]
 509 0016 0823     		movs	r3, #8
 510 0018 0A22     		movs	r2, #10
 511 001a F021     		movs	r1, #240
 512 001c 4FF4A070 		mov	r0, #320
 513 0020 FFF7FEFF 		bl	DrawGrid
 514              	.LVL66:
  37:Display.c     ****     /* Display frequency */
 515              		.loc 1 37 0
 516 0024 069B     		ldr	r3, [sp, #24]
 517 0026 059A     		ldr	r2, [sp, #20]
 518 0028 0F21     		movs	r1, #15
ARM GAS  C:\Users\dasta\AppData\Local\Temp\ccTxLCoO.s 			page 12


 519 002a C820     		movs	r0, #200
 520 002c FFF7FEFF 		bl	DrawScale
 521              	.LVL67:
  39:Display.c     **** }
 522              		.loc 1 39 0
 523 0030 089B     		ldr	r3, [sp, #32]
 524 0032 079A     		ldr	r2, [sp, #28]
 525 0034 0F21     		movs	r1, #15
 526 0036 0A20     		movs	r0, #10
 527 0038 FFF7FEFF 		bl	DrawFreq
 528              	.LVL68:
  40:Display.c     **** 
 529              		.loc 1 40 0
 530 003c 03B0     		add	sp, sp, #12
 531              		.cfi_def_cfa_offset 20
 532              		@ sp needed
 533 003e 5DF804EB 		ldr	lr, [sp], #4
 534              		.cfi_restore 14
 535              		.cfi_def_cfa_offset 16
 536 0042 04B0     		add	sp, sp, #16
 537              		.cfi_def_cfa_offset 0
 538 0044 7047     		bx	lr
 539              		.cfi_endproc
 540              	.LFE689:
 541              		.size	RefreshDisplay, .-RefreshDisplay
 542 0046 00BF     		.section	.text.DrawWaveform,"ax",%progbits
 543              		.align	2
 544              		.global	DrawWaveform
 545              		.thumb
 546              		.thumb_func
 547              		.type	DrawWaveform, %function
 548              	DrawWaveform:
 549              	.LFB694:
 103:Display.c     **** 
 104:Display.c     **** void DrawWaveform(int ch, int x, int y, uint32_t color, GUI_HMEM ch1_spline, GUI_HMEM ch2_spline)
 105:Display.c     **** {
 550              		.loc 1 105 0
 551              		.cfi_startproc
 552              		@ args = 8, pretend = 0, frame = 0
 553              		@ frame_needed = 0, uses_anonymous_args = 0
 554              	.LVL69:
 555 0000 F8B5     		push	{r3, r4, r5, r6, r7, lr}
 556              		.cfi_def_cfa_offset 24
 557              		.cfi_offset 3, -24
 558              		.cfi_offset 4, -20
 559              		.cfi_offset 5, -16
 560              		.cfi_offset 6, -12
 561              		.cfi_offset 7, -8
 562              		.cfi_offset 14, -4
 563 0002 0646     		mov	r6, r0
 564 0004 0C46     		mov	r4, r1
 565 0006 1546     		mov	r5, r2
 566 0008 1F46     		mov	r7, r3
 106:Display.c     ****     GUI_SetPenSize(4);
 567              		.loc 1 106 0
 568 000a 0420     		movs	r0, #4
 569              	.LVL70:
ARM GAS  C:\Users\dasta\AppData\Local\Temp\ccTxLCoO.s 			page 13


 570 000c FFF7FEFF 		bl	GUI_SetPenSize
 571              	.LVL71:
 107:Display.c     ****     GUI_SetColor(color);
 572              		.loc 1 107 0
 573 0010 3846     		mov	r0, r7
 574 0012 FFF7FEFF 		bl	GUI_SetColor
 575              	.LVL72:
 108:Display.c     ****     if (ch == 0)
 576              		.loc 1 108 0
 577 0016 2EB9     		cbnz	r6, .L32
 109:Display.c     ****         GUI_SPLINE_Draw(ch1_spline, x, y);
 578              		.loc 1 109 0
 579 0018 2A46     		mov	r2, r5
 580 001a 2146     		mov	r1, r4
 581 001c 0698     		ldr	r0, [sp, #24]
 582 001e FFF7FEFF 		bl	GUI_SPLINE_Draw
 583              	.LVL73:
 584 0022 F8BD     		pop	{r3, r4, r5, r6, r7, pc}
 585              	.LVL74:
 586              	.L32:
 110:Display.c     ****     else
 111:Display.c     ****         GUI_SPLINE_Draw(ch2_spline, x, y);
 587              		.loc 1 111 0
 588 0024 2A46     		mov	r2, r5
 589 0026 2146     		mov	r1, r4
 590 0028 0798     		ldr	r0, [sp, #28]
 591 002a FFF7FEFF 		bl	GUI_SPLINE_Draw
 592              	.LVL75:
 593 002e F8BD     		pop	{r3, r4, r5, r6, r7, pc}
 594              		.cfi_endproc
 595              	.LFE694:
 596              		.size	DrawWaveform, .-DrawWaveform
 597              		.section	.text.CreateWave,"ax",%progbits
 598              		.align	2
 599              		.global	CreateWave
 600              		.thumb
 601              		.thumb_func
 602              		.type	CreateWave, %function
 603              	CreateWave:
 604              	.LFB695:
 112:Display.c     **** }
 113:Display.c     **** // creates and draws a waveform
 114:Display.c     **** // enter raw data in, will change it
 115:Display.c     **** GUI_HMEM CreateWave(int *data, int *x, double psy)
 116:Display.c     **** {
 605              		.loc 1 116 0
 606              		.cfi_startproc
 607              		@ args = 0, pretend = 0, frame = 0
 608              		@ frame_needed = 0, uses_anonymous_args = 0
 609              	.LVL76:
 610 0000 2DE9F041 		push	{r4, r5, r6, r7, r8, lr}
 611              		.cfi_def_cfa_offset 24
 612              		.cfi_offset 4, -24
 613              		.cfi_offset 5, -20
 614              		.cfi_offset 6, -16
 615              		.cfi_offset 7, -12
 616              		.cfi_offset 8, -8
ARM GAS  C:\Users\dasta\AppData\Local\Temp\ccTxLCoO.s 			page 14


 617              		.cfi_offset 14, -4
 618 0004 0546     		mov	r5, r0
 619 0006 8846     		mov	r8, r1
 620 0008 1646     		mov	r6, r2
 621 000a 1F46     		mov	r7, r3
 622              	.LVL77:
 117:Display.c     ****     int i;
 118:Display.c     ****     for (i = 0; i < MAXPOINTS; i++){
 623              		.loc 1 118 0
 624 000c 0024     		movs	r4, #0
 625 000e 08E0     		b	.L36
 626              	.LVL78:
 627              	.L37:
 119:Display.c     ****         data[i] = findAmp(psy, data[i]);
 628              		.loc 1 119 0 discriminator 3
 629 0010 55F82420 		ldr	r2, [r5, r4, lsl #2]
 630 0014 3046     		mov	r0, r6
 631 0016 3946     		mov	r1, r7
 632 0018 FFF7FEFF 		bl	findAmp
 633              	.LVL79:
 634 001c 45F82400 		str	r0, [r5, r4, lsl #2]
 118:Display.c     ****         data[i] = findAmp(psy, data[i]);
 635              		.loc 1 118 0 discriminator 3
 636 0020 0134     		adds	r4, r4, #1
 637              	.LVL80:
 638              	.L36:
 118:Display.c     ****         data[i] = findAmp(psy, data[i]);
 639              		.loc 1 118 0 is_stmt 0 discriminator 1
 640 0022 B4F59B7F 		cmp	r4, #310
 641 0026 F3DB     		blt	.L37
 120:Display.c     ****         //printf("%d - %d\n", i, data[i]);
 121:Display.c     ****     }
 122:Display.c     ****     GUI_HMEM spline = GUI_SPLINE_Create(x, data, MAXPOINTS);
 642              		.loc 1 122 0 is_stmt 1
 643 0028 4FF49B72 		mov	r2, #310
 644 002c 2946     		mov	r1, r5
 645 002e 4046     		mov	r0, r8
 646 0030 FFF7FEFF 		bl	GUI_SPLINE_Create
 647              	.LVL81:
 123:Display.c     ****     return spline;
 124:Display.c     **** }
 648              		.loc 1 124 0
 649 0034 BDE8F081 		pop	{r4, r5, r6, r7, r8, pc}
 650              		.cfi_endproc
 651              	.LFE695:
 652              		.size	CreateWave, .-CreateWave
 653              		.section	.rodata.str1.4,"aMS",%progbits,1
 654              		.align	2
 655              	.LC0:
 656 0000 54696E79 		.ascii	"TinyScope\000"
 656      53636F70 
 656      6500
 657 000a 0000     		.space	2
 658              	.LC1:
 659 000c 43534520 		.ascii	"CSE 121/L Final Project\000"
 659      3132312F 
 659      4C204669 
ARM GAS  C:\Users\dasta\AppData\Local\Temp\ccTxLCoO.s 			page 15


 659      6E616C20 
 659      50726F6A 
 660              	.LC2:
 661 0024 58736361 		.ascii	"Xscale: %0d ms/div\000"
 661      6C653A20 
 661      25306420 
 661      6D732F64 
 661      697600
 662 0037 00       		.space	1
 663              	.LC3:
 664 0038 58736361 		.ascii	"Xscale: %0d us/div\000"
 664      6C653A20 
 664      25306420 
 664      75732F64 
 664      697600
 665 004b 00       		.space	1
 666              	.LC4:
 667 004c 59736361 		.ascii	"Yscale: %0d V/div\000"
 667      6C653A20 
 667      25306420 
 667      562F6469 
 667      7600
 668 005e 0000     		.space	2
 669              	.LC5:
 670 0060 59736361 		.ascii	"Yscale: %0d.%0d V/div\000"
 670      6C653A20 
 670      2530642E 
 670      25306420 
 670      562F6469 
 671 0076 0000     		.space	2
 672              	.LC6:
 673 0078 43682031 		.ascii	"Ch 1 Freq: %0d kHz\000"
 673      20467265 
 673      713A2025 
 673      3064206B 
 673      487A00
 674 008b 00       		.space	1
 675              	.LC7:
 676 008c 43682032 		.ascii	"Ch 2 Freq: %0d kHz\000"
 676      20467265 
 676      713A2025 
 676      3064206B 
 676      487A00
 677              		.text
 678              	.Letext0:
 679              		.file 2 "c:\\program files (x86)\\cypress\\psoc creator\\4.3\\psoc creator\\import\\gnu\\arm\\5.4.
 680              		.file 3 "c:\\program files (x86)\\cypress\\psoc creator\\4.3\\psoc creator\\import\\gnu\\arm\\5.4.
 681              		.file 4 "Generated_Source\\PSoC6\\pdl\\drivers/peripheral/device/cy_device.h"
 682              		.file 5 "Generated_Source\\PSoC6\\pdl\\drivers/peripheral/sar/cy_sar.h"
 683              		.file 6 "Generated_Source\\PSoC6\\pdl\\drivers/peripheral/scb/cy_scb_uart.h"
 684              		.file 7 "Generated_Source\\PSoC6/ADC.h"
 685              		.file 8 "Generated_Source\\PSoC6\\pdl\\middleware/emWin/code/include/GUI_Type.h"
 686              		.file 9 "./TinyScope.h"
 687              		.file 10 "Generated_Source\\PSoC6\\pdl\\cmsis/include/core_cm4.h"
 688              		.file 11 "Generated_Source\\PSoC6/UART.h"
 689              		.file 12 "Generated_Source\\PSoC6\\pdl\\middleware/emWin/code/include/GUI.h"
 690              		.file 13 "c:\\program files (x86)\\cypress\\psoc creator\\4.3\\psoc creator\\import\\gnu\\arm\\5.4
ARM GAS  C:\Users\dasta\AppData\Local\Temp\ccTxLCoO.s 			page 16

